target datalayout = "e-m:e-p270:32:32-p271:32:32-p272:64:64-i64:64-i128:128-f80:128-n8:16:32:64-S128"
target triple = "x86_64-pc-linux-gnu"

@g_ascii_table = external constant ptr, align 8

; Function Attrs: alwaysinline nounwind
define internal ptr @memset.inline(ptr %0, i32 %1, i64 %2) #5 {
  %4 = alloca ptr, align 8
  %5 = alloca i32, align 4
  %6 = alloca i64, align 8
  store ptr %0, ptr %4, align 8
  store i32 %1, ptr %5, align 4
  store i64 %2, ptr %6, align 8
  %7 = load ptr, ptr %4, align 8
  %8 = load i32, ptr %5, align 4
  %9 = load i64, ptr %6, align 8
  %10 = load ptr, ptr %4, align 8
  %11 = call i64 @llvm.objectsize.i64.p0(ptr %10, i1 false, i1 true, i1 true)
  %12 = call ptr @__memset_chk(ptr noundef %7, i32 noundef %8, i64 noundef %9, i64 noundef %11) #13
  ret ptr %12
}

; Function Attrs: nounwind null_pointer_is_valid sspstrong uwtable
define internal zeroext i1 @zbd_parse_uat_hexline(ptr noundef %0, ptr noundef %1, i32 noundef %2) #3 {
  %4 = alloca i1, align 1
  %5 = alloca ptr, align 8
  %6 = alloca ptr, align 8
  %7 = alloca i32, align 4
  %8 = alloca i32, align 4
  %9 = alloca i32, align 4
  %10 = alloca i8, align 1
  %11 = alloca i8, align 1
  %12 = alloca i32, align 4
  store ptr %0, ptr %5, align 8
  store ptr %1, ptr %6, align 8
  store i32 %2, ptr %7, align 4
  call void @llvm.lifetime.start.p0(i64 4, ptr %8) #13
  call void @llvm.lifetime.start.p0(i64 4, ptr %9) #13
  call void @llvm.lifetime.start.p0(i64 1, ptr %10) #13
  call void @llvm.lifetime.start.p0(i64 1, ptr %11) #13
  store i8 0, ptr %11, align 1
  %13 = load ptr, ptr %6, align 8
  %14 = load i32, ptr %7, align 4
  %15 = zext i32 %14 to i64
  %16 = call ptr @memset.inline(ptr noundef %13, i32 noundef 0, i64 noundef %15) #13
  %17 = load ptr, ptr %5, align 8
  %18 = icmp eq ptr %17, null
  br i1 %18, label %19, label %20

19:                                               ; preds = %3
  store i1 false, ptr %4, align 1
  store i32 1, ptr %12, align 4
  br label %129

20:                                               ; preds = %3
  %21 = load ptr, ptr %5, align 8
  %22 = getelementptr i8, ptr %21, i32 1
  store ptr %22, ptr %5, align 8
  %23 = load i8, ptr %21, align 1
  store i8 %23, ptr %10, align 1
  %24 = sext i8 %23 to i32
  %25 = icmp eq i32 %24, 34
  br i1 %25, label %26, label %30

26:                                               ; preds = %20
  store i8 1, ptr %11, align 1
  %27 = load ptr, ptr %5, align 8
  %28 = getelementptr i8, ptr %27, i32 1
  store ptr %28, ptr %5, align 8
  %29 = load i8, ptr %27, align 1
  store i8 %29, ptr %10, align 1
  br label %30

30:                                               ; preds = %26, %20
  store i32 0, ptr %9, align 4
  %31 = load i32, ptr %7, align 4
  %32 = sub i32 %31, 1
  store i32 %32, ptr %8, align 4
  br label %33

33:                                               ; preds = %125, %30
  %34 = load i32, ptr %8, align 4
  %35 = icmp sge i32 %34, 0
  br i1 %35, label %36, label %128

36:                                               ; preds = %33
  %37 = load i8, ptr %11, align 1, !range !12, !noundef !13
  %38 = trunc i8 %37 to i1
  br i1 %38, label %39, label %59

39:                                               ; preds = %36
  %40 = load ptr, ptr @g_ascii_table, align 8
  %41 = load i8, ptr %10, align 1
  %42 = zext i8 %41 to i64
  %43 = getelementptr i16, ptr %40, i64 %42
  %44 = load i16, ptr %43, align 2
  %45 = zext i16 %44 to i32
  %46 = and i32 %45, 64
  %47 = icmp ne i32 %46, 0
  br i1 %47, label %48, label %57

48:                                               ; preds = %39
  %49 = load i8, ptr %10, align 1
  %50 = load ptr, ptr %6, align 8
  %51 = load i32, ptr %9, align 4
  %52 = sext i32 %51 to i64
  %53 = getelementptr i8, ptr %50, i64 %52
  store i8 %49, ptr %53, align 1
  %54 = load ptr, ptr %5, align 8
  %55 = getelementptr i8, ptr %54, i32 1
  store ptr %55, ptr %5, align 8
  %56 = load i8, ptr %54, align 1
  store i8 %56, ptr %10, align 1
  br label %58

57:                                               ; preds = %39
  store i1 false, ptr %4, align 1
  store i32 1, ptr %12, align 4
  br label %129

58:                                               ; preds = %48
  br label %122

59:                                               ; preds = %36
  %60 = load i8, ptr %10, align 1
  %61 = sext i8 %60 to i32
  %62 = icmp eq i32 %61, 58
  br i1 %62, label %71, label %63

63:                                               ; preds = %59
  %64 = load i8, ptr %10, align 1
  %65 = sext i8 %64 to i32
  %66 = icmp eq i32 %65, 45
  br i1 %66, label %71, label %67

67:                                               ; preds = %63
  %68 = load i8, ptr %10, align 1
  %69 = sext i8 %68 to i32
  %70 = icmp eq i32 %69, 32
  br i1 %70, label %71, label %75

71:                                               ; preds = %67, %63, %59
  %72 = load ptr, ptr %5, align 8
  %73 = getelementptr i8, ptr %72, i32 1
  store ptr %73, ptr %5, align 8
  %74 = load i8, ptr %72, align 1
  store i8 %74, ptr %10, align 1
  br label %75

75:                                               ; preds = %71, %67
  %76 = load ptr, ptr @g_ascii_table, align 8
  %77 = load i8, ptr %10, align 1
  %78 = zext i8 %77 to i64
  %79 = getelementptr i16, ptr %76, i64 %78
  %80 = load i16, ptr %79, align 2
  %81 = zext i16 %80 to i32
  %82 = and i32 %81, 1024
  %83 = icmp ne i32 %82, 0
  br i1 %83, label %84, label %93

84:                                               ; preds = %75
  %85 = load i8, ptr %10, align 1
  %86 = call i32 @g_ascii_xdigit_value(i8 noundef signext %85) #16
  %87 = shl i32 %86, 4
  %88 = trunc i32 %87 to i8
  %89 = load ptr, ptr %6, align 8
  %90 = load i32, ptr %9, align 4
  %91 = sext i32 %90 to i64
  %92 = getelementptr i8, ptr %89, i64 %91
  store i8 %88, ptr %92, align 1
  br label %94

93:                                               ; preds = %75
  store i1 false, ptr %4, align 1
  store i32 1, ptr %12, align 4
  br label %129

94:                                               ; preds = %84
  %95 = load ptr, ptr %5, align 8
  %96 = getelementptr i8, ptr %95, i32 1
  store ptr %96, ptr %5, align 8
  %97 = load i8, ptr %95, align 1
  store i8 %97, ptr %10, align 1
  %98 = load ptr, ptr @g_ascii_table, align 8
  %99 = load i8, ptr %10, align 1
  %100 = zext i8 %99 to i64
  %101 = getelementptr i16, ptr %98, i64 %100
  %102 = load i16, ptr %101, align 2
  %103 = zext i16 %102 to i32
  %104 = and i32 %103, 1024
  %105 = icmp ne i32 %104, 0
  br i1 %105, label %106, label %117

106:                                              ; preds = %94
  %107 = load i8, ptr %10, align 1
  %108 = call i32 @g_ascii_xdigit_value(i8 noundef signext %107) #16
  %109 = load ptr, ptr %6, align 8
  %110 = load i32, ptr %9, align 4
  %111 = sext i32 %110 to i64
  %112 = getelementptr i8, ptr %109, i64 %111
  %113 = load i8, ptr %112, align 1
  %114 = zext i8 %113 to i32
  %115 = or i32 %114, %108
  %116 = trunc i32 %115 to i8
  store i8 %116, ptr %112, align 1
  br label %118

117:                                              ; preds = %94
  store i1 false, ptr %4, align 1
  store i32 1, ptr %12, align 4
  br label %129

118:                                              ; preds = %106
  %119 = load ptr, ptr %5, align 8
  %120 = getelementptr i8, ptr %119, i32 1
  store ptr %120, ptr %5, align 8
  %121 = load i8, ptr %119, align 1
  store i8 %121, ptr %10, align 1
  br label %122

122:                                              ; preds = %118, %58
  %123 = load i32, ptr %9, align 4
  %124 = add i32 %123, 1
  store i32 %124, ptr %9, align 4
  br label %125

125:                                              ; preds = %122
  %126 = load i32, ptr %8, align 4
  %127 = add i32 %126, -1
  store i32 %127, ptr %8, align 4
  br label %33, !llvm.loop !16

128:                                              ; preds = %33
  store i1 true, ptr %4, align 1
  store i32 1, ptr %12, align 4
  br label %129

129:                                              ; preds = %128, %117, %93, %57, %19
  call void @llvm.lifetime.end.p0(i64 1, ptr %11) #13
  call void @llvm.lifetime.end.p0(i64 1, ptr %10) #13
  call void @llvm.lifetime.end.p0(i64 4, ptr %9) #13
  call void @llvm.lifetime.end.p0(i64 4, ptr %8) #13
  %130 = load i1, ptr %4, align 1
  ret i1 %130
}