; Function Attrs: nofree nounwind null_pointer_is_valid sspstrong memory(read, argmem: readwrite, inaccessiblemem: none) uwtable
define internal fastcc noundef zeroext i1 @zbd_parse_uat_hexline(ptr noundef readonly captures(address_is_null) %0, ptr noundef %1, i32 noundef range(i32 8, 17) %2) unnamed_addr #5 {
  %4 = zext nneg i32 %2 to i64
  tail call void @llvm.memset.p0.i64(ptr noundef align 1 %1, i8 noundef 0, i64 noundef range(i64 8, 17) %4, i1 noundef false) #13
  %5 = icmp eq ptr %0, null
  br i1 %5, label %.loopexit, label %6

6:                                                ; preds = %3
  %7 = getelementptr i8, ptr %0, i64 1
  %8 = load i8, ptr %0, align 1
  %9 = icmp eq i8 %8, 34
  br i1 %9, label %.split.us.preheader, label %.split.preheader

.split.preheader:                                 ; preds = %6
  %10 = load ptr, ptr @g_ascii_table, align 8
  br label %.split

.split.us.preheader:                              ; preds = %6
  %11 = getelementptr i8, ptr %0, i64 2
  %12 = load ptr, ptr @g_ascii_table, align 8
  br label %.split.us

.split.us:                                        ; preds = %.split.us.preheader, %17
  %indvars.iv52 = phi i64 [ 0, %.split.us.preheader ], [ %indvars.iv.next53, %17 ]
  %.148.us.in = phi ptr [ %7, %.split.us.preheader ], [ %.13946.us, %17 ]
  %.13946.us = phi ptr [ %11, %.split.us.preheader ], [ %19, %17 ]
  %.148.us = load i8, ptr %.148.us.in, align 1
  %13 = zext i8 %.148.us to i64
  %14 = getelementptr i16, ptr %12, i64 %13
  %15 = load i16, ptr %14, align 2
  %16 = and i16 %15, 64
  %.not44.us.not.not = icmp ne i16 %16, 0
  br i1 %.not44.us.not.not, label %17, label %.loopexit

17:                                               ; preds = %.split.us
  %18 = getelementptr i8, ptr %1, i64 %indvars.iv52
  store i8 %.148.us, ptr %18, align 1
  %19 = getelementptr i8, ptr %.13946.us, i64 1
  %indvars.iv.next53 = add nuw nsw i64 %indvars.iv52, 1
  %exitcond55.not = icmp eq i64 %indvars.iv.next53, %4
  br i1 %exitcond55.not, label %.loopexit, label %.split.us, !llvm.loop !17

.split:                                           ; preds = %.split.preheader, %37
  %indvars.iv = phi i64 [ 0, %.split.preheader ], [ %indvars.iv.next, %37 ]
  %.148 = phi i8 [ %8, %.split.preheader ], [ %.2, %37 ]
  %.13946 = phi ptr [ %7, %.split.preheader ], [ %42, %37 ]
  switch i8 %.148, label %23 [
    i8 58, label %20
    i8 45, label %20
    i8 32, label %20
  ]

20:                                               ; preds = %.split, %.split, %.split
  %21 = getelementptr i8, ptr %.13946, i64 1
  %22 = load i8, ptr %.13946, align 1
  br label %23

23:                                               ; preds = %.split, %20
  %.341 = phi ptr [ %21, %20 ], [ %.13946, %.split ]
  %.3 = phi i8 [ %22, %20 ], [ %.148, %.split ]
  %24 = zext i8 %.3 to i64
  %25 = getelementptr i16, ptr %10, i64 %24
  %26 = load i16, ptr %25, align 2
  %27 = and i16 %26, 1024
  %.not = icmp eq i16 %27, 0
  br i1 %.not, label %.loopexit, label %28

28:                                               ; preds = %23
  %29 = tail call i32 @g_ascii_xdigit_value(i8 noundef signext %.3) #15
  %.tr = trunc i32 %29 to i8
  %30 = shl i8 %.tr, 4
  %31 = getelementptr i8, ptr %1, i64 %indvars.iv
  store i8 %30, ptr %31, align 1
  %32 = load i8, ptr %.341, align 1
  %33 = zext i8 %32 to i64
  %34 = getelementptr i16, ptr %10, i64 %33
  %35 = load i16, ptr %34, align 2
  %36 = and i16 %35, 1024
  %.not43 = icmp eq i16 %36, 0
  br i1 %.not43, label %.loopexit, label %37

37:                                               ; preds = %28
  %38 = getelementptr i8, ptr %.341, i64 1
  %39 = tail call i32 @g_ascii_xdigit_value(i8 noundef signext %32) #15
  %40 = trunc i32 %39 to i8
  %41 = or i8 %30, %40
  store i8 %41, ptr %31, align 1
  %42 = getelementptr i8, ptr %.341, i64 2
  %.2 = load i8, ptr %38, align 1
  %indvars.iv.next = add nuw nsw i64 %indvars.iv, 1
  %exitcond.not = icmp eq i64 %indvars.iv.next, %4
  br i1 %exitcond.not, label %.loopexit, label %.split, !llvm.loop !17

.loopexit:                                        ; preds = %23, %28, %37, %17, %.split.us, %3
  %.037 = phi i1 [ false, %3 ], [ %.not44.us.not.not, %.split.us ], [ %.not44.us.not.not, %17 ], [ true, %37 ], [ false, %28 ], [ false, %23 ]
  ret i1 %.037
}